(lp0
F-0.0153141245
aF-0.101971559
aF-0.0927977785
aF0.000238589753
aF0.183422729
aF0.104974322
aF0.167043582
aF0.202747315
aF0.000542105932
aF-0.0195290893
aF-0.243877232
aF-0.0951216668
aF0.0206312947
aF0.102129392
aF0.00353450119
aF0.178895891
aF0.0718347058
aF-0.104931913
aF0.0236045681
aF-0.497308016
aF-0.391722053
aF-0.0845353901
aF0.0121886097
aF-0.0979684368
aF-0.174414366
aF0.13043496
aF-0.00857942831
aF0.1822249
aF-0.343353719
aF-0.340080202
aF-0.0129075386
aF0.152236193
aF0.159178704
aF0.0245475117
aF0.231552988
aF0.105513193
aF-0.443072647
aF-0.135274783
aF0.12413197
aF0.058833044
aF0.125100315
aF0.0292148571
aF0.197910473
aF-0.0440274626
aF-0.330100179
aF-0.296809405
aF-0.0489760935
aF0.231340334
aF0.17664516
aF0.136168778
aF0.110873066
aF0.191091552
aF0.0522090085
aF-0.231349275
aF0.0830331072
aF-0.166364148
aF0.0473377146
aF0.17351529
aF0.32330054
aF0.251859903
aF0.240291566
aF0.251421839
aF0.024812039
aF0.05736937
aF-0.00105034991
aF0.239099815
aF0.22841683
aF0.216074511
aF0.0574837215
aF0.218243599
aF0.272445232
aF-0.0284189042
aF-0.1679952
aF0.0511818603
aF0.173336536
aF0.0223838743
aF0.0345136151
aF0.0088593429
aF-0.00668086624
aF-0.0824858695
aF-0.136767566
aF-0.0612512454
aF0.0368780419
aF0.135959566
aF0.000726194412
aF0.00597851817
aF-0.0200809203
aF-0.172199771
aF-0.270739377
aF0.0587486364
aF0.324278086
aF-0.0323228389
aF0.0696906149
aF0.034354616
aF0.0329573043
aF-0.151188478
aF0.0795398504
aF0.0219326597
aF0.0881904811
aF0.0777797773
aF-0.0082905991
aF-0.0198374297
aF-0.0520866141
aF-0.0431259237
aF-0.0938322395
aF-0.0832437277
aF-0.0498500206
aF-0.0583604015
aF0.0343215838
aF0.100674652
aF0.157465935
aF0.105682649
aF0.093687579
aF0.0486916974
aF-0.0819397718
aF-0.343761802
aF0.0291536301
aF-0.0666311607
aF0.103389144
aF0.111797482
aF0.0728372559
aF0.0860152319
aF0.11961171
aF0.0435060561
aF-0.135343164
aF0.0538484715
aF-0.0609013364
aF0.0813770741
aF0.185744792
aF-0.0511341318
aF-0.24302654
aF-0.110460259
aF-0.226519629
aF-0.273981661
aF-0.0836519599
aF-0.0411219709
aF0.000384201034
aF0.234627336
aF-0.042996902
aF-0.240311056
aF0.0241771769
aF-0.0784223601
aF-0.204123691
aF-0.0223412979
aF0.0181233082
aF0.10480424
aF-0.00531371031
aF-0.0443759188
aF0.0134252822
aF0.1011739
aF0.13073878
aF-0.182306185
aF0.0758330449
aF0.236462399
aF0.165461287
aF0.0350119993
aF0.00415333826
aF0.0840580612
aF0.0987286344
aF0.105414964
aF-0.214529246
aF0.137128308
aF-0.117030203
aF0.0346535333
aF0.138654009
aF-0.094771117
aF-0.184092298
aF0.0707985535
aF0.0768647119
aF-0.296732545
aF-0.128148586
aF-0.156831339
aF0.0230557881
aF0.0138049722
aF-0.13573505
aF-0.349700004
aF-0.0998098999
aF0.0318075828
aF-0.273258984
aF-0.142783791
aF0.0727171376
aF-0.151959062
aF-0.267422497
aF-0.0590181574
aF0.0112497341
aF-0.203841716
aF-0.697180569
aF-0.231490195
aF0.0249556974
aF0.235149518
aF-0.0424668044
aF-0.165045917
aF0.0996165425
aF0.120397419
aF0.110679701
aF-0.368924737
aF-0.116484262
aF0.115643442
aF0.227140829
aF0.0877655149
aF-0.0484211445
aF0.134799287
aF0.0423182957
aF-0.184869707
aF-0.792251766
aF-0.390004158
aF0.110884689
aF0.337022871
aF0.115256242
aF-0.134077236
aF0.081985265
aF-0.123679698
aF-0.0897663459
aF-0.66598016
aF-0.525328636
aF0.210228518
aF0.0774752945
aF-0.0158759672
aF-0.0117133046
aF0.13768132
aF0.138986841
aF0.225528568
aF0.0358471274
aF0.0186072439
aF-0.0882984549
aF0.110547513
aF0.0980068669
aF0.182179928
aF0.16079773
aF0.183563083
aF0.102363624
aF0.202548698
aF0.237341106
aF-0.122689143
aF0.0549602658
aF-0.0647380054
aF-0.292733431
aF-0.188307807
aF-0.263855487
aF-0.0257398225
aF-0.325440586
aF-0.376069576
aF-0.166237727
aF0.0215047617
aF0.0369922407
aF-0.0603889897
aF-0.0852820575
aF-0.124419115
aF0.0601820499
aF0.0249938834
aF-0.0252756197
aF-0.129296318
aF-0.139453694
aF-0.00735435961
aF0.0599018559
aF0.0498798154
aF0.0804345831
aF0.050732702
aF0.219037011
aF0.292090565
aF-0.0297973286
aF-0.204866871
aF-0.0594595186
aF-0.103903964
aF-0.0559122227
aF-0.0599429272
aF0.118494891
aF0.1864122
aF0.369930506
aF-0.135300413
aF-0.188326791
aF-0.10131523
aF0.034544345
aF0.0419063978
aF0.0721447691
aF0.100479044
aF0.151839063
aF0.0575039685
aF-0.218635231
aF-0.160956204
aF-0.244201571
aF-0.0697284043
aF-0.0502875522
aF-0.0195902605
aF0.162688196
aF0.170767635
aF0.0621976852
aF-0.219789237
aF-0.215146393
aF-0.0522247665
aF0.00962085556
aF-0.049171716
aF-0.0862979367
aF0.10201598
aF0.0549575016
aF0.160447598
aF-0.153772771
aF-0.218603671
aF-0.191211805
aF-0.0357781723
aF-0.0993040204
aF-0.0326291174
aF0.114846699
aF0.0757778287
aF0.194706053
aF-0.0999677032
aF-0.108840421
aF-0.225002214
aF-0.0956959873
aF-0.0952222124
aF0.0376879424
aF0.153260857
aF0.0802746937
aF0.0523987599
aF-0.108435757
aF-0.0721106678
aF-0.215051338
aF-0.137959525
aF-0.0703532994
aF0.0841528922
aF0.102185011
aF0.0115219103
aF0.203943774
aF0.0965302736
aF-0.183133245
aF-0.365238816
aF-0.147532359
aF-0.0916734412
aF-0.10084217
aF0.110585444
aF0.0677400604
aF0.00580112217
aF-0.11615245
aF-0.119949996
aF-0.268841565
aF-0.167316392
aF-0.132559747
aF-0.256751418
aF0.0265572388
aF0.027890956
aF-0.135916829
aF-0.0975585952
aF-0.0261102542
aF-0.183951169
aF-0.15218623
aF-0.262484282
aF0.0164781027
aF0.0581901968
aF0.00337804155
aF0.0829724297
aF0.0909046009
aF0.22710225
aF0.0867163762
aF0.0830020532
aF-0.0959992409
aF0.123980448
aF0.11873401
aF0.110796429
aF0.0221771821
aF0.164974436
aF1.8307863439857681
a.